target datalayout = "e-m:e-p270:32:32-p271:32:32-p272:64:64-i64:64-i128:128-f80:128-n8:16:32:64-S128"
target triple = "x86_64-pc-linux-gnu"

%struct.global_State = type { ptr, ptr, %struct.GCState, %struct.GCstr, i8, i8, i8, i8, %struct.StrInternState, i32, %struct.GCRef, %struct.SBuf, %union.TValue, %union.TValue, %struct.Node, %union.TValue, %struct.GCupval, i32, i32, ptr, ptr, ptr, i32, i32, %struct.GCRef, %struct.MRef, %struct.MRef, %struct.PRNGState, [39 x %struct.GCRef] }
%struct.GCState = type { i64, i64, i8, i8, i8, i8, i32, %struct.GCRef, %struct.MRef, %struct.GCRef, %struct.GCRef, %struct.GCRef, %struct.GCRef, i64, i64, i32, i32, %struct.MRef }
%struct.GCstr = type { %struct.GCRef, i8, i8, i8, i8, i32, i32, i32 }
%struct.StrInternState = type { ptr, i32, i32, i32, i8, i8, i8, i8, i64 }
%struct.SBuf = type { ptr, ptr, ptr, %struct.MRef }
%struct.Node = type { %union.TValue, %union.TValue, %struct.MRef }
%union.TValue = type { i64 }
%struct.GCupval = type { %struct.GCRef, i8, i8, i8, i8, %union.anon, %struct.MRef, i32 }
%union.anon = type { %struct.anon.1 }
%struct.anon.1 = type { %struct.GCRef, %struct.GCRef }
%struct.GCRef = type { i64 }
%struct.MRef = type { i64 }
%struct.PRNGState = type { [4 x i64] }
%struct.GChead = type { %struct.GCRef, i8, i8, i8, i8, %struct.GCRef, %struct.GCRef, %struct.GCRef }
%struct.GCudata = type { %struct.GCRef, i8, i8, i8, i8, %struct.GCRef, i32, %struct.GCRef, i32 }
%struct.SBufExt = type { ptr, ptr, ptr, %struct.MRef, %union.anon.4, ptr, %struct.GCRef, %struct.GCRef, i32 }
%union.anon.4 = type { %struct.GCRef }

; Function Attrs: nounwind uwtable
define internal void @gc_mark(ptr noundef %0, ptr noundef %1) #0 {
  %3 = alloca ptr, align 8
  %4 = alloca ptr, align 8
  %5 = alloca i32, align 4
  %6 = alloca ptr, align 8
  %7 = alloca ptr, align 8
  %8 = alloca ptr, align 8
  store ptr %0, ptr %3, align 8, !tbaa !4
  store ptr %1, ptr %4, align 8, !tbaa !28
  call void @llvm.lifetime.start.p0(i64 4, ptr %5) #7
  %9 = load ptr, ptr %4, align 8, !tbaa !28
  %10 = getelementptr inbounds nuw %struct.GChead, ptr %9, i32 0, i32 2
  %11 = load i8, ptr %10, align 1, !tbaa !30
  %12 = zext i8 %11 to i32
  store i32 %12, ptr %5, align 4, !tbaa !9
  %13 = load ptr, ptr %4, align 8, !tbaa !28
  %14 = getelementptr inbounds nuw %struct.GChead, ptr %13, i32 0, i32 1
  %15 = load i8, ptr %14, align 8, !tbaa !30
  %16 = zext i8 %15 to i32
  %17 = and i32 %16, 252
  %18 = trunc i32 %17 to i8
  store i8 %18, ptr %14, align 8, !tbaa !30
  %19 = load i32, ptr %5, align 4, !tbaa !9
  %20 = icmp eq i32 %19, 12
  %21 = xor i1 %20, true
  %22 = xor i1 %21, true
  %23 = zext i1 %22 to i32
  %24 = sext i32 %23 to i64
  %25 = call i64 @llvm.expect.i64(i64 %24, i64 0)
  %26 = icmp ne i64 %25, 0
  br i1 %26, label %27, label %165

27:                                               ; preds = %2
  call void @llvm.lifetime.start.p0(i64 8, ptr %6) #7
  %28 = load ptr, ptr %4, align 8, !tbaa !28
  %29 = getelementptr inbounds nuw %struct.GCudata, ptr %28, i32 0, i32 7
  %30 = getelementptr inbounds nuw %struct.GCRef, ptr %29, i32 0, i32 0
  %31 = load i64, ptr %30, align 8, !tbaa !30
  %32 = inttoptr i64 %31 to ptr
  store ptr %32, ptr %6, align 8, !tbaa !46
  %33 = load ptr, ptr %4, align 8, !tbaa !28
  %34 = getelementptr inbounds nuw %struct.GChead, ptr %33, i32 0, i32 1
  %35 = load i8, ptr %34, align 8, !tbaa !30
  %36 = zext i8 %35 to i32
  %37 = or i32 %36, 4
  %38 = trunc i32 %37 to i8
  store i8 %38, ptr %34, align 8, !tbaa !30
  %39 = load ptr, ptr %6, align 8, !tbaa !46
  %40 = icmp ne ptr %39, null
  br i1 %40, label %41, label %52

41:                                               ; preds = %27
  %42 = load ptr, ptr %6, align 8, !tbaa !46
  %43 = getelementptr inbounds nuw %struct.GChead, ptr %42, i32 0, i32 1
  %44 = load i8, ptr %43, align 8, !tbaa !30
  %45 = zext i8 %44 to i32
  %46 = and i32 %45, 3
  %47 = icmp ne i32 %46, 0
  br i1 %47, label %48, label %51

48:                                               ; preds = %41
  %49 = load ptr, ptr %3, align 8, !tbaa !4
  %50 = load ptr, ptr %6, align 8, !tbaa !46
  call void @gc_mark(ptr noundef %49, ptr noundef %50)
  br label %51

51:                                               ; preds = %48, %41
  br label %52

52:                                               ; preds = %51, %27
  %53 = load ptr, ptr %4, align 8, !tbaa !28
  %54 = getelementptr inbounds nuw %struct.GCudata, ptr %53, i32 0, i32 5
  %55 = getelementptr inbounds nuw %struct.GCRef, ptr %54, i32 0, i32 0
  %56 = load i64, ptr %55, align 8, !tbaa !30
  %57 = inttoptr i64 %56 to ptr
  %58 = getelementptr inbounds nuw %struct.GChead, ptr %57, i32 0, i32 1
  %59 = load i8, ptr %58, align 8, !tbaa !30
  %60 = zext i8 %59 to i32
  %61 = and i32 %60, 3
  %62 = icmp ne i32 %61, 0
  br i1 %62, label %63, label %70

63:                                               ; preds = %52
  %64 = load ptr, ptr %3, align 8, !tbaa !4
  %65 = load ptr, ptr %4, align 8, !tbaa !28
  %66 = getelementptr inbounds nuw %struct.GCudata, ptr %65, i32 0, i32 5
  %67 = getelementptr inbounds nuw %struct.GCRef, ptr %66, i32 0, i32 0
  %68 = load i64, ptr %67, align 8, !tbaa !30
  %69 = inttoptr i64 %68 to ptr
  call void @gc_mark(ptr noundef %64, ptr noundef %69)
  br label %70

70:                                               ; preds = %63, %52
  %71 = load ptr, ptr %4, align 8, !tbaa !28
  %72 = getelementptr inbounds nuw %struct.GCudata, ptr %71, i32 0, i32 3
  %73 = load i8, ptr %72, align 2, !tbaa !30
  %74 = zext i8 %73 to i32
  %75 = icmp eq i32 %74, 3
  br i1 %75, label %76, label %164

76:                                               ; preds = %70
  call void @llvm.lifetime.start.p0(i64 8, ptr %7) #7
  %77 = load ptr, ptr %4, align 8, !tbaa !28
  %78 = getelementptr inbounds %struct.GCudata, ptr %77, i64 1
  store ptr %78, ptr %7, align 8, !tbaa !102
  %79 = load ptr, ptr %7, align 8, !tbaa !102
  %80 = getelementptr inbounds nuw %struct.SBufExt, ptr %79, i32 0, i32 3
  %81 = getelementptr inbounds nuw %struct.MRef, ptr %80, i32 0, i32 0
  %82 = load i64, ptr %81, align 8, !tbaa !104
  %83 = and i64 %82, 2
  %84 = icmp ne i64 %83, 0
  br i1 %84, label %85, label %111

85:                                               ; preds = %76
  %86 = load ptr, ptr %7, align 8, !tbaa !102
  %87 = getelementptr inbounds nuw %struct.SBufExt, ptr %86, i32 0, i32 4
  %88 = getelementptr inbounds nuw %struct.GCRef, ptr %87, i32 0, i32 0
  %89 = load i64, ptr %88, align 8, !tbaa !30
  %90 = inttoptr i64 %89 to ptr
  %91 = icmp ne ptr %90, null
  br i1 %91, label %92, label %111

92:                                               ; preds = %85
  %93 = load ptr, ptr %7, align 8, !tbaa !102
  %94 = getelementptr inbounds nuw %struct.SBufExt, ptr %93, i32 0, i32 4
  %95 = getelementptr inbounds nuw %struct.GCRef, ptr %94, i32 0, i32 0
  %96 = load i64, ptr %95, align 8, !tbaa !30
  %97 = inttoptr i64 %96 to ptr
  %98 = getelementptr inbounds nuw %struct.GChead, ptr %97, i32 0, i32 1
  %99 = load i8, ptr %98, align 8, !tbaa !30
  %100 = zext i8 %99 to i32
  %101 = and i32 %100, 3
  %102 = icmp ne i32 %101, 0
  br i1 %102, label %103, label %110

103:                                              ; preds = %92
  %104 = load ptr, ptr %3, align 8, !tbaa !4
  %105 = load ptr, ptr %7, align 8, !tbaa !102
  %106 = getelementptr inbounds nuw %struct.SBufExt, ptr %105, i32 0, i32 4
  %107 = getelementptr inbounds nuw %struct.GCRef, ptr %106, i32 0, i32 0
  %108 = load i64, ptr %107, align 8, !tbaa !30
  %109 = inttoptr i64 %108 to ptr
  call void @gc_mark(ptr noundef %104, ptr noundef %109)
  br label %110

110:                                              ; preds = %103, %92
  br label %111

111:                                              ; preds = %110, %85, %76
  %112 = load ptr, ptr %7, align 8, !tbaa !102
  %113 = getelementptr inbounds nuw %struct.SBufExt, ptr %112, i32 0, i32 6
  %114 = getelementptr inbounds nuw %struct.GCRef, ptr %113, i32 0, i32 0
  %115 = load i64, ptr %114, align 8, !tbaa !106
  %116 = inttoptr i64 %115 to ptr
  %117 = icmp ne ptr %116, null
  br i1 %117, label %118, label %137

118:                                              ; preds = %111
  %119 = load ptr, ptr %7, align 8, !tbaa !102
  %120 = getelementptr inbounds nuw %struct.SBufExt, ptr %119, i32 0, i32 6
  %121 = getelementptr inbounds nuw %struct.GCRef, ptr %120, i32 0, i32 0
  %122 = load i64, ptr %121, align 8, !tbaa !106
  %123 = inttoptr i64 %122 to ptr
  %124 = getelementptr inbounds nuw %struct.GChead, ptr %123, i32 0, i32 1
  %125 = load i8, ptr %124, align 8, !tbaa !30
  %126 = zext i8 %125 to i32
  %127 = and i32 %126, 3
  %128 = icmp ne i32 %127, 0
  br i1 %128, label %129, label %136

129:                                              ; preds = %118
  %130 = load ptr, ptr %3, align 8, !tbaa !4
  %131 = load ptr, ptr %7, align 8, !tbaa !102
  %132 = getelementptr inbounds nuw %struct.SBufExt, ptr %131, i32 0, i32 6
  %133 = getelementptr inbounds nuw %struct.GCRef, ptr %132, i32 0, i32 0
  %134 = load i64, ptr %133, align 8, !tbaa !106
  %135 = inttoptr i64 %134 to ptr
  call void @gc_mark(ptr noundef %130, ptr noundef %135)
  br label %136

136:                                              ; preds = %129, %118
  br label %137

137:                                              ; preds = %136, %111
  %138 = load ptr, ptr %7, align 8, !tbaa !102
  %139 = getelementptr inbounds nuw %struct.SBufExt, ptr %138, i32 0, i32 7
  %140 = getelementptr inbounds nuw %struct.GCRef, ptr %139, i32 0, i32 0
  %141 = load i64, ptr %140, align 8, !tbaa !107
  %142 = inttoptr i64 %141 to ptr
  %143 = icmp ne ptr %142, null
  br i1 %143, label %144, label %163

144:                                              ; preds = %137
  %145 = load ptr, ptr %7, align 8, !tbaa !102
  %146 = getelementptr inbounds nuw %struct.SBufExt, ptr %145, i32 0, i32 7
  %147 = getelementptr inbounds nuw %struct.GCRef, ptr %146, i32 0, i32 0
  %148 = load i64, ptr %147, align 8, !tbaa !107
  %149 = inttoptr i64 %148 to ptr
  %150 = getelementptr inbounds nuw %struct.GChead, ptr %149, i32 0, i32 1
  %151 = load i8, ptr %150, align 8, !tbaa !30
  %152 = zext i8 %151 to i32
  %153 = and i32 %152, 3
  %154 = icmp ne i32 %153, 0
  br i1 %154, label %155, label %162

155:                                              ; preds = %144
  %156 = load ptr, ptr %3, align 8, !tbaa !4
  %157 = load ptr, ptr %7, align 8, !tbaa !102
  %158 = getelementptr inbounds nuw %struct.SBufExt, ptr %157, i32 0, i32 7
  %159 = getelementptr inbounds nuw %struct.GCRef, ptr %158, i32 0, i32 0
  %160 = load i64, ptr %159, align 8, !tbaa !107
  %161 = inttoptr i64 %160 to ptr
  call void @gc_mark(ptr noundef %156, ptr noundef %161)
  br label %162

162:                                              ; preds = %155, %144
  br label %163

163:                                              ; preds = %162, %137
  call void @llvm.lifetime.end.p0(i64 8, ptr %7) #7
  br label %164

164:                                              ; preds = %163, %70
  call void @llvm.lifetime.end.p0(i64 8, ptr %6) #7
  br label %248

165:                                              ; preds = %2
  %166 = load i32, ptr %5, align 4, !tbaa !9
  %167 = icmp eq i32 %166, 5
  %168 = xor i1 %167, true
  %169 = xor i1 %168, true
  %170 = zext i1 %169 to i32
  %171 = sext i32 %170 to i64
  %172 = call i64 @llvm.expect.i64(i64 %171, i64 0)
  %173 = icmp ne i64 %172, 0
  br i1 %173, label %174, label %225

174:                                              ; preds = %165
  call void @llvm.lifetime.start.p0(i64 8, ptr %8) #7
  %175 = load ptr, ptr %4, align 8, !tbaa !28
  store ptr %175, ptr %8, align 8, !tbaa !108
  %176 = load ptr, ptr %8, align 8, !tbaa !108
  %177 = getelementptr inbounds nuw %struct.GCupval, ptr %176, i32 0, i32 6
  %178 = getelementptr inbounds nuw %struct.MRef, ptr %177, i32 0, i32 0
  %179 = load i64, ptr %178, align 8, !tbaa !110
  %180 = inttoptr i64 %179 to ptr
  %181 = load i64, ptr %180, align 8, !tbaa !30
  %182 = ashr i64 %181, 47
  %183 = trunc i64 %182 to i32
  %184 = sub i32 %183, -4
  %185 = icmp ugt i32 %184, -10
  br i1 %185, label %186, label %212

186:                                              ; preds = %174
  %187 = load ptr, ptr %8, align 8, !tbaa !108
  %188 = getelementptr inbounds nuw %struct.GCupval, ptr %187, i32 0, i32 6
  %189 = getelementptr inbounds nuw %struct.MRef, ptr %188, i32 0, i32 0
  %190 = load i64, ptr %189, align 8, !tbaa !110
  %191 = inttoptr i64 %190 to ptr
  %192 = getelementptr inbounds nuw %struct.GCRef, ptr %191, i32 0, i32 0
  %193 = load i64, ptr %192, align 8, !tbaa !30
  %194 = and i64 %193, 140737488355327
  %195 = inttoptr i64 %194 to ptr
  %196 = getelementptr inbounds nuw %struct.GChead, ptr %195, i32 0, i32 1
  %197 = load i8, ptr %196, align 8, !tbaa !30
  %198 = zext i8 %197 to i32
  %199 = and i32 %198, 3
  %200 = icmp ne i32 %199, 0
  br i1 %200, label %201, label %212

201:                                              ; preds = %186
  %202 = load ptr, ptr %3, align 8, !tbaa !4
  %203 = load ptr, ptr %8, align 8, !tbaa !108
  %204 = getelementptr inbounds nuw %struct.GCupval, ptr %203, i32 0, i32 6
  %205 = getelementptr inbounds nuw %struct.MRef, ptr %204, i32 0, i32 0
  %206 = load i64, ptr %205, align 8, !tbaa !110
  %207 = inttoptr i64 %206 to ptr
  %208 = getelementptr inbounds nuw %struct.GCRef, ptr %207, i32 0, i32 0
  %209 = load i64, ptr %208, align 8, !tbaa !30
  %210 = and i64 %209, 140737488355327
  %211 = inttoptr i64 %210 to ptr
  call void @gc_mark(ptr noundef %202, ptr noundef %211)
  br label %212

212:                                              ; preds = %201, %186, %174
  %213 = load ptr, ptr %8, align 8, !tbaa !108
  %214 = getelementptr inbounds nuw %struct.GCupval, ptr %213, i32 0, i32 3
  %215 = load i8, ptr %214, align 2, !tbaa !111
  %216 = icmp ne i8 %215, 0
  br i1 %216, label %217, label %224

217:                                              ; preds = %212
  %218 = load ptr, ptr %4, align 8, !tbaa !28
  %219 = getelementptr inbounds nuw %struct.GChead, ptr %218, i32 0, i32 1
  %220 = load i8, ptr %219, align 8, !tbaa !30
  %221 = zext i8 %220 to i32
  %222 = or i32 %221, 4
  %223 = trunc i32 %222 to i8
  store i8 %223, ptr %219, align 8, !tbaa !30
  br label %224

224:                                              ; preds = %217, %212
  call void @llvm.lifetime.end.p0(i64 8, ptr %8) #7
  br label %247

225:                                              ; preds = %165
  %226 = load i32, ptr %5, align 4, !tbaa !9
  %227 = icmp ne i32 %226, 4
  br i1 %227, label %228, label %246

228:                                              ; preds = %225
  %229 = load i32, ptr %5, align 4, !tbaa !9
  %230 = icmp ne i32 %229, 10
  br i1 %230, label %231, label %246

231:                                              ; preds = %228
  %232 = load ptr, ptr %3, align 8, !tbaa !4
  %233 = getelementptr inbounds nuw %struct.global_State, ptr %232, i32 0, i32 2
  %234 = getelementptr inbounds nuw %struct.GCState, ptr %233, i32 0, i32 9
  %235 = getelementptr inbounds nuw %struct.GCRef, ptr %234, i32 0, i32 0
  %236 = load i64, ptr %235, align 8, !tbaa !88
  %237 = load ptr, ptr %4, align 8, !tbaa !28
  %238 = getelementptr inbounds nuw %struct.GChead, ptr %237, i32 0, i32 6
  %239 = getelementptr inbounds nuw %struct.GCRef, ptr %238, i32 0, i32 0
  store i64 %236, ptr %239, align 8, !tbaa !30
  %240 = load ptr, ptr %4, align 8, !tbaa !28
  %241 = ptrtoint ptr %240 to i64
  %242 = load ptr, ptr %3, align 8, !tbaa !4
  %243 = getelementptr inbounds nuw %struct.global_State, ptr %242, i32 0, i32 2
  %244 = getelementptr inbounds nuw %struct.GCState, ptr %243, i32 0, i32 9
  %245 = getelementptr inbounds nuw %struct.GCRef, ptr %244, i32 0, i32 0
  store i64 %241, ptr %245, align 8, !tbaa !88
  br label %246

246:                                              ; preds = %231, %228, %225
  br label %247

247:                                              ; preds = %246, %224
  br label %248

248:                                              ; preds = %247, %164
  call void @llvm.lifetime.end.p0(i64 4, ptr %5) #7
  ret void
}