; Function Attrs: nofree nosync nounwind memory(readwrite, inaccessiblemem: none) uwtable
define internal fastcc void @gc_mark(ptr noundef %0, ptr noundef %1) unnamed_addr #3 {
  %.phi.trans.insert = getelementptr inbounds nuw i8, ptr %1, i64 8
  %.pre = load i8, ptr %.phi.trans.insert, align 8, !tbaa !23
  br label %tailrecurse

tailrecurse:                                      ; preds = %55, %2
  %3 = phi i8 [ %.pre, %2 ], [ %58, %55 ]
  %.tr56 = phi ptr [ %1, %2 ], [ %56, %55 ]
  %4 = getelementptr inbounds nuw i8, ptr %.tr56, i64 9
  %5 = load i8, ptr %4, align 1, !tbaa !23
  %6 = getelementptr inbounds nuw i8, ptr %.tr56, i64 8
  %7 = and i8 %3, -4
  store i8 %7, ptr %6, align 8, !tbaa !23
  switch i8 %5, label %82 [
    i8 12, label %8
    i8 5, label %60
    i8 10, label %.loopexit
    i8 4, label %.loopexit
  ], !prof !101

8:                                                ; preds = %tailrecurse
  %9 = getelementptr inbounds nuw i8, ptr %.tr56, i64 32
  %10 = load i64, ptr %9, align 8, !tbaa !23
  %11 = inttoptr i64 %10 to ptr
  %12 = or i8 %7, 4
  store i8 %12, ptr %6, align 8, !tbaa !23
  %.not46 = icmp eq i64 %10, 0
  br i1 %.not46, label %18, label %13

13:                                               ; preds = %8
  %14 = getelementptr inbounds nuw i8, ptr %11, i64 8
  %15 = load i8, ptr %14, align 8, !tbaa !23
  %16 = and i8 %15, 3
  %.not47 = icmp eq i8 %16, 0
  br i1 %.not47, label %18, label %17

17:                                               ; preds = %13
  tail call fastcc void @gc_mark(ptr noundef %0, ptr noundef nonnull %11)
  br label %18

18:                                               ; preds = %13, %17, %8
  %19 = getelementptr inbounds nuw i8, ptr %.tr56, i64 16
  %20 = load i64, ptr %19, align 8, !tbaa !23
  %21 = inttoptr i64 %20 to ptr
  %22 = getelementptr inbounds nuw i8, ptr %21, i64 8
  %23 = load i8, ptr %22, align 8, !tbaa !23
  %24 = and i8 %23, 3
  %.not48 = icmp eq i8 %24, 0
  br i1 %.not48, label %26, label %25

25:                                               ; preds = %18
  tail call fastcc void @gc_mark(ptr noundef %0, ptr noundef nonnull %21)
  br label %26

26:                                               ; preds = %25, %18
  %27 = getelementptr inbounds nuw i8, ptr %.tr56, i64 10
  %28 = load i8, ptr %27, align 2, !tbaa !23
  %29 = icmp eq i8 %28, 3
  br i1 %29, label %30, label %.loopexit

30:                                               ; preds = %26
  %31 = getelementptr inbounds nuw i8, ptr %.tr56, i64 72
  %32 = load i64, ptr %31, align 8, !tbaa !102
  %33 = and i64 %32, 2
  %.not49 = icmp eq i64 %33, 0
  br i1 %.not49, label %43, label %34

34:                                               ; preds = %30
  %35 = getelementptr inbounds nuw i8, ptr %.tr56, i64 80
  %36 = load i64, ptr %35, align 8, !tbaa !23
  %37 = inttoptr i64 %36 to ptr
  %.not50 = icmp eq i64 %36, 0
  br i1 %.not50, label %43, label %38

38:                                               ; preds = %34
  %39 = getelementptr inbounds nuw i8, ptr %37, i64 8
  %40 = load i8, ptr %39, align 8, !tbaa !23
  %41 = and i8 %40, 3
  %.not51 = icmp eq i8 %41, 0
  br i1 %.not51, label %43, label %42

42:                                               ; preds = %38
  tail call fastcc void @gc_mark(ptr noundef %0, ptr noundef nonnull %37)
  br label %43

43:                                               ; preds = %38, %42, %34, %30
  %44 = getelementptr inbounds nuw i8, ptr %.tr56, i64 96
  %45 = load i64, ptr %44, align 8, !tbaa !104
  %46 = inttoptr i64 %45 to ptr
  %.not52 = icmp eq i64 %45, 0
  br i1 %.not52, label %52, label %47

47:                                               ; preds = %43
  %48 = getelementptr inbounds nuw i8, ptr %46, i64 8
  %49 = load i8, ptr %48, align 8, !tbaa !23
  %50 = and i8 %49, 3
  %.not53 = icmp eq i8 %50, 0
  br i1 %.not53, label %52, label %51

51:                                               ; preds = %47
  tail call fastcc void @gc_mark(ptr noundef %0, ptr noundef nonnull %46)
  br label %52

52:                                               ; preds = %47, %51, %43
  %53 = getelementptr inbounds nuw i8, ptr %.tr56, i64 104
  %54 = load i64, ptr %53, align 8, !tbaa !105
  %.not54 = icmp eq i64 %54, 0
  br i1 %.not54, label %.loopexit, label %55

55:                                               ; preds = %52
  %56 = inttoptr i64 %54 to ptr
  %57 = getelementptr inbounds nuw i8, ptr %56, i64 8
  %58 = load i8, ptr %57, align 8, !tbaa !23
  %59 = and i8 %58, 3
  %.not55 = icmp eq i8 %59, 0
  br i1 %.not55, label %.loopexit, label %tailrecurse

60:                                               ; preds = %tailrecurse
  %61 = getelementptr inbounds nuw i8, ptr %.tr56, i64 32
  %62 = load i64, ptr %61, align 8, !tbaa !77
  %63 = inttoptr i64 %62 to ptr
  %64 = load i64, ptr %63, align 8, !tbaa !23
  %65 = ashr i64 %64, 47
  %66 = trunc nsw i64 %65 to i32
  %67 = add nsw i32 %66, 13
  %68 = icmp ult i32 %67, 9
  br i1 %68, label %69, label %76

69:                                               ; preds = %60
  %70 = and i64 %64, 140737488355327
  %71 = inttoptr i64 %70 to ptr
  %72 = getelementptr inbounds nuw i8, ptr %71, i64 8
  %73 = load i8, ptr %72, align 8, !tbaa !23
  %74 = and i8 %73, 3
  %.not = icmp eq i8 %74, 0
  br i1 %.not, label %76, label %75

75:                                               ; preds = %69
  tail call fastcc void @gc_mark(ptr noundef %0, ptr noundef nonnull %71)
  br label %76

76:                                               ; preds = %75, %69, %60
  %77 = getelementptr inbounds nuw i8, ptr %.tr56, i64 10
  %78 = load i8, ptr %77, align 2, !tbaa !106
  %.not45 = icmp eq i8 %78, 0
  br i1 %.not45, label %.loopexit, label %79

79:                                               ; preds = %76
  %80 = load i8, ptr %6, align 8, !tbaa !23
  %81 = or i8 %80, 4
  store i8 %81, ptr %6, align 8, !tbaa !23
  br label %.loopexit

82:                                               ; preds = %tailrecurse
  %83 = getelementptr inbounds nuw i8, ptr %0, i64 56
  %84 = load i64, ptr %83, align 8, !tbaa !75
  %85 = getelementptr inbounds nuw i8, ptr %.tr56, i64 24
  store i64 %84, ptr %85, align 8, !tbaa !23
  %86 = ptrtoint ptr %.tr56 to i64
  store i64 %86, ptr %83, align 8, !tbaa !75
  br label %.loopexit

.loopexit:                                        ; preds = %tailrecurse, %tailrecurse, %26, %55, %52, %76, %79, %82
  ret void
}